target datalayout = "e-m:e-p270:32:32-p271:32:32-p272:64:64-i64:64-i128:128-f80:128-n8:16:32:64-S128"
target triple = "x86_64-pc-linux-gnu"

%struct.ScanKeyData = type { i32, i16, i16, i32, i32, %struct.FmgrInfo, i64 }
%struct.FmgrInfo = type { ptr, i32, i16, i8, i8, i8, ptr, ptr, ptr }
%struct.FormData_pg_inherits = type { i32, i32, i32, i8 }
%struct.HeapTupleData = type { i32, %struct.ItemPointerData, i32, ptr }
%struct.ItemPointerData = type { %struct.BlockIdData, i16 }
%struct.BlockIdData = type { i16, i16 }
%struct.FormData_pg_class = type { i32, %struct.nameData, i32, i32, i32, i32, i32, i32, i32, i32, float, i32, i32, i8, i8, i8, i8, i16, i16, i8, i8, i8, i8, i8, i8, i8, i8, i32, i32, i32 }
%struct.nameData = type { [64 x i8] }
%struct.HeapTupleHeaderData = type { %union.anon, %struct.ItemPointerData, i16, i16, i8, [0 x i8] }
%union.anon = type { %struct.HeapTupleFields }
%struct.HeapTupleFields = type { i32, i32, %union.anon.0 }
%union.anon.0 = type { i32 }
%union.ListCell = type { ptr }
%struct.ForEachState = type { ptr, i32 }
%struct.List = type { i32, i32, i32, ptr, [0 x %union.ListCell] }

@.str.1 = private unnamed_addr constant [14 x i8] c"pg_inherits.c\00", align 1
@.str.3 = private unnamed_addr constant [36 x i8] c"cache lookup failed for relation %u\00", align 1
@__func__.has_subclass = private unnamed_addr constant [13 x i8] c"has_subclass\00", align 1

; Function Attrs: inlinehint nounwind uwtable
define internal ptr @GETSTRUCT(ptr noundef %0) #3 {
  %2 = alloca ptr, align 8
  store ptr %0, ptr %2, align 8
  %3 = load ptr, ptr %2, align 8
  %4 = getelementptr inbounds nuw %struct.HeapTupleData, ptr %3, i32 0, i32 3
  %5 = load ptr, ptr %4, align 8
  %6 = load ptr, ptr %2, align 8
  %7 = getelementptr inbounds nuw %struct.HeapTupleData, ptr %6, i32 0, i32 3
  %8 = load ptr, ptr %7, align 8
  %9 = getelementptr inbounds nuw %struct.HeapTupleHeaderData, ptr %8, i32 0, i32 4
  %10 = load i8, ptr %9, align 2
  %11 = zext i8 %10 to i32
  %12 = sext i32 %11 to i64
  %13 = getelementptr inbounds i8, ptr %5, i64 %12
  ret ptr %13
}

; Function Attrs: inlinehint nounwind uwtable
define internal i64 @ObjectIdGetDatum(i32 noundef %0) #3 {
  %2 = alloca i32, align 4
  store i32 %0, ptr %2, align 4
  %3 = load i32, ptr %2, align 4
  %4 = zext i32 %3 to i64
  ret i64 %4
}

; Function Attrs: nounwind uwtable
define dso_local zeroext i1 @has_subclass(i32 noundef %0) #0 {
  %2 = alloca i32, align 4
  %3 = alloca ptr, align 8
  %4 = alloca i8, align 1
  store i32 %0, ptr %2, align 4
  call void @llvm.lifetime.start.p0(i64 8, ptr %3) #6
  call void @llvm.lifetime.start.p0(i64 1, ptr %4) #6
  %5 = load i32, ptr %2, align 4
  %6 = call i64 @ObjectIdGetDatum(i32 noundef %5)
  %7 = call ptr @SearchSysCache1(i32 noundef 57, i64 noundef %6)
  store ptr %7, ptr %3, align 8
  %8 = load ptr, ptr %3, align 8
  %9 = icmp ne ptr %8, null
  br i1 %9, label %22, label %10

10:                                               ; preds = %1
  br label %11

11:                                               ; preds = %10
  br i1 true, label %12, label %14

12:                                               ; preds = %11
  %13 = call zeroext i1 @errstart_cold(i32 noundef 21, ptr noundef null) #7
  br i1 %13, label %16, label %19

14:                                               ; preds = %11
  %15 = call zeroext i1 @errstart(i32 noundef 21, ptr noundef null)
  br i1 %15, label %16, label %19

16:                                               ; preds = %14, %12
  %17 = load i32, ptr %2, align 4
  %18 = call i32 (ptr, ...) @errmsg_internal(ptr noundef @.str.3, i32 noundef %17)
  call void @errfinish(ptr noundef @.str.1, i32 noundef 362, ptr noundef @__func__.has_subclass)
  br label %19

19:                                               ; preds = %16, %14, %12
  unreachable

20:                                               ; No predecessors!
  br label %21

21:                                               ; preds = %20
  br label %22

22:                                               ; preds = %21, %1
  %23 = load ptr, ptr %3, align 8
  %24 = call ptr @GETSTRUCT(ptr noundef %23)
  %25 = getelementptr inbounds nuw %struct.FormData_pg_class, ptr %24, i32 0, i32 21
  %26 = load i8, ptr %25, align 2, !range !4, !noundef !5
  %27 = trunc i8 %26 to i1
  %28 = zext i1 %27 to i8
  store i8 %28, ptr %4, align 1
  %29 = load ptr, ptr %3, align 8
  call void @ReleaseSysCache(ptr noundef %29)
  %30 = load i8, ptr %4, align 1, !range !4, !noundef !5
  %31 = trunc i8 %30 to i1
  call void @llvm.lifetime.end.p0(i64 1, ptr %4) #6
  call void @llvm.lifetime.end.p0(i64 8, ptr %3) #6
  ret i1 %31
}

; Function Attrs: nounwind uwtable
define dso_local zeroext i1 @typeInheritsFrom(i32 noundef %0, i32 noundef %1) #0 {
  %3 = alloca i1, align 1
  %4 = alloca i32, align 4
  %5 = alloca i32, align 4
  %6 = alloca i8, align 1
  %7 = alloca i32, align 4
  %8 = alloca i32, align 4
  %9 = alloca ptr, align 8
  %10 = alloca ptr, align 8
  %11 = alloca ptr, align 8
  %12 = alloca ptr, align 8
  %13 = alloca i32, align 4
  %14 = alloca %union.ListCell, align 8
  %15 = alloca %struct.ForEachState, align 8
  %16 = alloca i32, align 4
  %17 = alloca %struct.ScanKeyData, align 8
  %18 = alloca ptr, align 8
  %19 = alloca ptr, align 8
  %20 = alloca ptr, align 8
  %21 = alloca i32, align 4
  store i32 %0, ptr %4, align 4
  store i32 %1, ptr %5, align 4
  call void @llvm.lifetime.start.p0(i64 1, ptr %6) #6
  store i8 0, ptr %6, align 1
  call void @llvm.lifetime.start.p0(i64 4, ptr %7) #6
  call void @llvm.lifetime.start.p0(i64 4, ptr %8) #6
  call void @llvm.lifetime.start.p0(i64 8, ptr %9) #6
  call void @llvm.lifetime.start.p0(i64 8, ptr %10) #6
  call void @llvm.lifetime.start.p0(i64 8, ptr %11) #6
  call void @llvm.lifetime.start.p0(i64 8, ptr %12) #6
  %22 = load i32, ptr %4, align 4
  %23 = call i32 @typeOrDomainTypeRelid(i32 noundef %22)
  store i32 %23, ptr %7, align 4
  %24 = load i32, ptr %7, align 4
  %25 = icmp eq i32 %24, 0
  br i1 %25, label %26, label %27

26:                                               ; preds = %2
  store i1 false, ptr %3, align 1
  store i32 1, ptr %13, align 4
  br label %130

27:                                               ; preds = %2
  %28 = load i32, ptr %5, align 4
  %29 = call i32 @typeidTypeRelid(i32 noundef %28)
  store i32 %29, ptr %8, align 4
  %30 = load i32, ptr %8, align 4
  %31 = icmp eq i32 %30, 0
  br i1 %31, label %32, label %33

32:                                               ; preds = %27
  store i1 false, ptr %3, align 1
  store i32 1, ptr %13, align 4
  br label %130

33:                                               ; preds = %27
  %34 = load i32, ptr %8, align 4
  %35 = call zeroext i1 @has_subclass(i32 noundef %34)
  br i1 %35, label %37, label %36

36:                                               ; preds = %33
  store i1 false, ptr %3, align 1
  store i32 1, ptr %13, align 4
  br label %130

37:                                               ; preds = %33
  %38 = load i32, ptr %7, align 4
  store i32 %38, ptr %14, align 8
  %39 = getelementptr i8, ptr %14, i64 4
  call void @llvm.memset.p0.i64(ptr align 4 %39, i8 0, i64 4, i1 false)
  %40 = getelementptr inbounds nuw %union.ListCell, ptr %14, i32 0, i32 0
  %41 = load ptr, ptr %40, align 8
  %42 = call ptr @list_make1_impl(i32 noundef 471, ptr %41)
  store ptr %42, ptr %11, align 8
  store ptr null, ptr %10, align 8
  %43 = call ptr @table_open(i32 noundef 2611, i32 noundef 1)
  store ptr %43, ptr %9, align 8
  call void @llvm.lifetime.start.p0(i64 16, ptr %15) #6
  %44 = getelementptr inbounds nuw %struct.ForEachState, ptr %15, i32 0, i32 0
  %45 = load ptr, ptr %11, align 8
  store ptr %45, ptr %44, align 8
  %46 = getelementptr inbounds nuw %struct.ForEachState, ptr %15, i32 0, i32 1
  store i32 0, ptr %46, align 8
  %47 = getelementptr i8, ptr %15, i64 12
  call void @llvm.memset.p0.i64(ptr align 4 %47, i8 0, i64 4, i1 false)
  br label %48

48:                                               ; preds = %119, %37
  %49 = getelementptr inbounds nuw %struct.ForEachState, ptr %15, i32 0, i32 0
  %50 = load ptr, ptr %49, align 8
  %51 = icmp ne ptr %50, null
  br i1 %51, label %52, label %69

52:                                               ; preds = %48
  %53 = getelementptr inbounds nuw %struct.ForEachState, ptr %15, i32 0, i32 1
  %54 = load i32, ptr %53, align 8
  %55 = getelementptr inbounds nuw %struct.ForEachState, ptr %15, i32 0, i32 0
  %56 = load ptr, ptr %55, align 8
  %57 = getelementptr inbounds nuw %struct.List, ptr %56, i32 0, i32 1
  %58 = load i32, ptr %57, align 4
  %59 = icmp slt i32 %54, %58
  br i1 %59, label %60, label %69

60:                                               ; preds = %52
  %61 = getelementptr inbounds nuw %struct.ForEachState, ptr %15, i32 0, i32 0
  %62 = load ptr, ptr %61, align 8
  %63 = getelementptr inbounds nuw %struct.List, ptr %62, i32 0, i32 3
  %64 = load ptr, ptr %63, align 8
  %65 = getelementptr inbounds nuw %struct.ForEachState, ptr %15, i32 0, i32 1
  %66 = load i32, ptr %65, align 8
  %67 = sext i32 %66 to i64
  %68 = getelementptr inbounds %union.ListCell, ptr %64, i64 %67
  store ptr %68, ptr %12, align 8
  br label %70

69:                                               ; preds = %52, %48
  store ptr null, ptr %12, align 8
  br label %70

70:                                               ; preds = %69, %60
  %71 = phi i32 [ 1, %60 ], [ 0, %69 ]
  %72 = icmp ne i32 %71, 0
  br i1 %72, label %74, label %73

73:                                               ; preds = %70
  store i32 2, ptr %13, align 4
  br label %123

74:                                               ; preds = %70
  call void @llvm.lifetime.start.p0(i64 4, ptr %16) #6
  %75 = load ptr, ptr %12, align 8
  %76 = load i32, ptr %75, align 8
  store i32 %76, ptr %16, align 4
  call void @llvm.lifetime.start.p0(i64 72, ptr %17) #6
  call void @llvm.lifetime.start.p0(i64 8, ptr %18) #6
  call void @llvm.lifetime.start.p0(i64 8, ptr %19) #6
  %77 = load ptr, ptr %10, align 8
  %78 = load i32, ptr %16, align 4
  %79 = call zeroext i1 @list_member_oid(ptr noundef %77, i32 noundef %78)
  br i1 %79, label %80, label %81

80:                                               ; preds = %74
  store i32 4, ptr %13, align 4
  br label %116

81:                                               ; preds = %74
  %82 = load ptr, ptr %10, align 8
  %83 = load i32, ptr %16, align 4
  %84 = call ptr @lappend_oid(ptr noundef %82, i32 noundef %83)
  store ptr %84, ptr %10, align 8
  %85 = load i32, ptr %16, align 4
  %86 = call i64 @ObjectIdGetDatum(i32 noundef %85)
  call void @ScanKeyInit(ptr noundef %17, i16 noundef signext 1, i16 noundef zeroext 3, i32 noundef 184, i64 noundef %86)
  %87 = load ptr, ptr %9, align 8
  %88 = call ptr @systable_beginscan(ptr noundef %87, i32 noundef 2680, i1 noundef zeroext true, ptr noundef null, i32 noundef 1, ptr noundef %17)
  store ptr %88, ptr %18, align 8
  br label %89

89:                                               ; preds = %109, %81
  %90 = load ptr, ptr %18, align 8
  %91 = call ptr @systable_getnext(ptr noundef %90)
  store ptr %91, ptr %19, align 8
  %92 = icmp ne ptr %91, null
  br i1 %92, label %93, label %110

93:                                               ; preds = %89
  call void @llvm.lifetime.start.p0(i64 8, ptr %20) #6
  %94 = load ptr, ptr %19, align 8
  %95 = call ptr @GETSTRUCT(ptr noundef %94)
  store ptr %95, ptr %20, align 8
  call void @llvm.lifetime.start.p0(i64 4, ptr %21) #6
  %96 = load ptr, ptr %20, align 8
  %97 = getelementptr inbounds nuw %struct.FormData_pg_inherits, ptr %96, i32 0, i32 1
  %98 = load i32, ptr %97, align 4
  store i32 %98, ptr %21, align 4
  %99 = load i32, ptr %21, align 4
  %100 = load i32, ptr %8, align 4
  %101 = icmp eq i32 %99, %100
  br i1 %101, label %102, label %103

102:                                              ; preds = %93
  store i8 1, ptr %6, align 1
  store i32 6, ptr %13, align 4
  br label %107

103:                                              ; preds = %93
  %104 = load ptr, ptr %11, align 8
  %105 = load i32, ptr %21, align 4
  %106 = call ptr @lappend_oid(ptr noundef %104, i32 noundef %105)
  store ptr %106, ptr %11, align 8
  store i32 0, ptr %13, align 4
  br label %107

107:                                              ; preds = %103, %102
  call void @llvm.lifetime.end.p0(i64 4, ptr %21) #6
  call void @llvm.lifetime.end.p0(i64 8, ptr %20) #6
  %108 = load i32, ptr %13, align 4
  switch i32 %108, label %132 [
    i32 0, label %109
    i32 6, label %110
  ]

109:                                              ; preds = %107
  br label %89, !llvm.loop !11

110:                                              ; preds = %107, %89
  %111 = load ptr, ptr %18, align 8
  call void @systable_endscan(ptr noundef %111)
  %112 = load i8, ptr %6, align 1, !range !4, !noundef !5
  %113 = trunc i8 %112 to i1
  br i1 %113, label %114, label %115

114:                                              ; preds = %110
  store i32 2, ptr %13, align 4
  br label %116

115:                                              ; preds = %110
  store i32 0, ptr %13, align 4
  br label %116

116:                                              ; preds = %115, %114, %80
  call void @llvm.lifetime.end.p0(i64 8, ptr %19) #6
  call void @llvm.lifetime.end.p0(i64 8, ptr %18) #6
  call void @llvm.lifetime.end.p0(i64 72, ptr %17) #6
  call void @llvm.lifetime.end.p0(i64 4, ptr %16) #6
  %117 = load i32, ptr %13, align 4
  switch i32 %117, label %123 [
    i32 0, label %118
    i32 4, label %119
  ]

118:                                              ; preds = %116
  br label %119

119:                                              ; preds = %118, %116
  %120 = getelementptr inbounds nuw %struct.ForEachState, ptr %15, i32 0, i32 1
  %121 = load i32, ptr %120, align 8
  %122 = add i32 %121, 1
  store i32 %122, ptr %120, align 8
  br label %48, !llvm.loop !12

123:                                              ; preds = %116, %73
  call void @llvm.lifetime.end.p0(i64 16, ptr %15) #6
  br label %124

124:                                              ; preds = %123
  %125 = load ptr, ptr %9, align 8
  call void @table_close(ptr noundef %125, i32 noundef 1)
  %126 = load ptr, ptr %10, align 8
  call void @list_free(ptr noundef %126)
  %127 = load ptr, ptr %11, align 8
  call void @list_free(ptr noundef %127)
  %128 = load i8, ptr %6, align 1, !range !4, !noundef !5
  %129 = trunc i8 %128 to i1
  store i1 %129, ptr %3, align 1
  store i32 1, ptr %13, align 4
  br label %130

130:                                              ; preds = %124, %36, %32, %26
  call void @llvm.lifetime.end.p0(i64 8, ptr %12) #6
  call void @llvm.lifetime.end.p0(i64 8, ptr %11) #6
  call void @llvm.lifetime.end.p0(i64 8, ptr %10) #6
  call void @llvm.lifetime.end.p0(i64 8, ptr %9) #6
  call void @llvm.lifetime.end.p0(i64 4, ptr %8) #6
  call void @llvm.lifetime.end.p0(i64 4, ptr %7) #6
  call void @llvm.lifetime.end.p0(i64 1, ptr %6) #6
  %131 = load i1, ptr %3, align 1
  ret i1 %131

132:                                              ; preds = %107
  unreachable
}