; Function Attrs: nounwind uwtable
define dso_local noundef zeroext i1 @typeInheritsFrom(i32 noundef %0, i32 noundef %1) local_unnamed_addr #0 {
  %3 = alloca %struct.ScanKeyData, align 8
  %4 = tail call i32 @typeOrDomainTypeRelid(i32 noundef %0) #5
  %5 = icmp eq i32 %4, 0
  br i1 %5, label %56, label %6

6:                                                ; preds = %2
  %7 = tail call i32 @typeidTypeRelid(i32 noundef %1) #5
  %8 = icmp eq i32 %7, 0
  br i1 %8, label %56, label %9

9:                                                ; preds = %6
  %10 = zext i32 %7 to i64
  %11 = tail call ptr @SearchSysCache1(i32 noundef 57, i64 noundef %10) #5
  %.not.i = icmp eq ptr %11, null
  br i1 %.not.i, label %12, label %has_subclass.exit

12:                                               ; preds = %9
  %13 = tail call zeroext i1 @errstart_cold(i32 noundef 21, ptr noundef null) #6
  tail call void @llvm.assume(i1 %13)
  %14 = tail call i32 (ptr, ...) @errmsg_internal(ptr noundef nonnull @.str.3, i32 noundef %7) #5
  tail call void @errfinish(ptr noundef nonnull @.str.1, i32 noundef 362, ptr noundef nonnull @__func__.has_subclass) #5
  unreachable

has_subclass.exit:                                ; preds = %9
  %15 = getelementptr i8, ptr %11, i64 16
  %.val.i = load ptr, ptr %15, align 8
  %16 = getelementptr inbounds nuw i8, ptr %.val.i, i64 22
  %17 = load i8, ptr %16, align 2
  %18 = zext i8 %17 to i64
  %19 = getelementptr inbounds nuw i8, ptr %.val.i, i64 %18
  %20 = getelementptr inbounds nuw i8, ptr %19, i64 122
  %21 = load i8, ptr %20, align 2, !range !4, !noundef !5
  %22 = trunc nuw i8 %21 to i1
  tail call void @ReleaseSysCache(ptr noundef nonnull %11) #5
  br i1 %22, label %23, label %56

23:                                               ; preds = %has_subclass.exit
  %.sroa.012.0.insert.ext = zext i32 %4 to i64
  %24 = inttoptr i64 %.sroa.012.0.insert.ext to ptr
  %25 = tail call ptr @list_make1_impl(i32 noundef 471, ptr nonnull %24) #5
  %26 = tail call ptr @table_open(i32 noundef 2611, i32 noundef 1) #5
  %.not = icmp eq ptr %25, null
  br i1 %.not, label %.thread, label %.lr.ph81

.lr.ph81:                                         ; preds = %23
  %27 = getelementptr inbounds nuw i8, ptr %25, i64 4
  %28 = getelementptr inbounds nuw i8, ptr %25, i64 16
  %29 = load i32, ptr %27, align 4
  %30 = icmp sgt i32 %29, 0
  br i1 %30, label %.lr.ph96, label %.thread

.lr.ph96:                                         ; preds = %.lr.ph81, %52
  %indvars.iv = phi i64 [ %indvars.iv.next, %52 ], [ 0, %.lr.ph81 ]
  %.0387994 = phi ptr [ %.240.ph, %52 ], [ %25, %.lr.ph81 ]
  %.0358093 = phi ptr [ %.237.ph, %52 ], [ null, %.lr.ph81 ]
  %31 = load ptr, ptr %28, align 8
  %32 = getelementptr inbounds nuw %union.ListCell, ptr %31, i64 %indvars.iv
  %33 = load i32, ptr %32, align 8
  call void @llvm.lifetime.start.p0(i64 72, ptr nonnull %3) #5
  %34 = call zeroext i1 @list_member_oid(ptr noundef %.0358093, i32 noundef %33) #5
  br i1 %34, label %52, label %35

35:                                               ; preds = %.lr.ph96
  %36 = call ptr @lappend_oid(ptr noundef %.0358093, i32 noundef %33) #5
  %37 = zext i32 %33 to i64
  call void @ScanKeyInit(ptr noundef nonnull %3, i16 noundef signext 1, i16 noundef zeroext 3, i32 noundef 184, i64 noundef %37) #5
  %38 = call ptr @systable_beginscan(ptr noundef %26, i32 noundef 2680, i1 noundef zeroext true, ptr noundef null, i32 noundef 1, ptr noundef nonnull %3) #5
  %39 = call ptr @systable_getnext(ptr noundef %38) #5
  %.not5376 = icmp eq ptr %39, null
  br i1 %.not5376, label %.thread56, label %.lr.ph

.lr.ph:                                           ; preds = %35, %49
  %40 = phi ptr [ %51, %49 ], [ %39, %35 ]
  %.34177 = phi ptr [ %50, %49 ], [ %.0387994, %35 ]
  %41 = getelementptr i8, ptr %40, i64 16
  %.val = load ptr, ptr %41, align 8
  %42 = getelementptr inbounds nuw i8, ptr %.val, i64 22
  %43 = load i8, ptr %42, align 2
  %44 = zext i8 %43 to i64
  %45 = getelementptr inbounds nuw i8, ptr %.val, i64 %44
  %46 = getelementptr inbounds nuw i8, ptr %45, i64 4
  %47 = load i32, ptr %46, align 4
  %48 = icmp eq i32 %47, %7
  br i1 %48, label %.thread56.thread, label %49

.thread56.thread:                                 ; preds = %.lr.ph
  call void @systable_endscan(ptr noundef %38) #5
  call void @llvm.lifetime.end.p0(i64 72, ptr nonnull %3) #5
  br label %.thread

49:                                               ; preds = %.lr.ph
  %50 = call ptr @lappend_oid(ptr noundef %.34177, i32 noundef %47) #5
  %51 = call ptr @systable_getnext(ptr noundef %38) #5
  %.not53 = icmp eq ptr %51, null
  br i1 %.not53, label %.thread56, label %.lr.ph

.thread56:                                        ; preds = %49, %35
  %.341.lcssa = phi ptr [ %.0387994, %35 ], [ %50, %49 ]
  call void @systable_endscan(ptr noundef %38) #5
  br label %52

52:                                               ; preds = %.thread56, %.lr.ph96
  %.240.ph = phi ptr [ %.341.lcssa, %.thread56 ], [ %.0387994, %.lr.ph96 ]
  %.237.ph = phi ptr [ %36, %.thread56 ], [ %.0358093, %.lr.ph96 ]
  call void @llvm.lifetime.end.p0(i64 72, ptr nonnull %3) #5
  %indvars.iv.next = add nuw nsw i64 %indvars.iv, 1
  %53 = load i32, ptr %27, align 4
  %54 = sext i32 %53 to i64
  %55 = icmp slt i64 %indvars.iv.next, %54
  br i1 %55, label %.lr.ph96, label %.thread

.thread:                                          ; preds = %52, %23, %.lr.ph81, %.thread56.thread
  %.139 = phi ptr [ %.34177, %.thread56.thread ], [ null, %23 ], [ %25, %.lr.ph81 ], [ %.240.ph, %52 ]
  %.136 = phi ptr [ %36, %.thread56.thread ], [ null, %23 ], [ null, %.lr.ph81 ], [ %.237.ph, %52 ]
  %.1 = phi i1 [ true, %.thread56.thread ], [ false, %23 ], [ false, %.lr.ph81 ], [ false, %52 ]
  call void @table_close(ptr noundef %26, i32 noundef 1) #5
  call void @list_free(ptr noundef %.136) #5
  call void @list_free(ptr noundef %.139) #5
  br label %56

56:                                               ; preds = %has_subclass.exit, %6, %2, %.thread
  %.0 = phi i1 [ %.1, %.thread ], [ false, %2 ], [ false, %6 ], [ false, %has_subclass.exit ]
  ret i1 %.0
}